; Function Attrs: nounwind uwtable
define dso_local void @logicalrep_write_stream_start(ptr noundef %0, i32 noundef %1, i1 noundef zeroext %2) local_unnamed_addr #0 {
  tail call void @enlargeStringInfo(ptr noundef %0, i32 noundef 1) #8
  tail call void @llvm.experimental.noalias.scope.decl(metadata !237)
  %4 = load ptr, ptr %0, align 8, !alias.scope !237
  %5 = getelementptr inbounds nuw i8, ptr %0, i64 8
  %6 = load i32, ptr %5, align 8, !alias.scope !237
  %7 = sext i32 %6 to i64
  %8 = getelementptr inbounds i8, ptr %4, i64 %7
  store i8 83, ptr %8, align 1, !noalias !237
  %9 = add i32 %6, 1
  store i32 %9, ptr %5, align 8, !alias.scope !237
  tail call void @enlargeStringInfo(ptr noundef nonnull %0, i32 noundef 4) #8
  tail call void @llvm.experimental.noalias.scope.decl(metadata !240)
  %10 = tail call i32 @llvm.bswap.i32(i32 %1)
  %11 = load ptr, ptr %0, align 8, !alias.scope !240
  %12 = load i32, ptr %5, align 8, !alias.scope !240
  %13 = sext i32 %12 to i64
  %14 = getelementptr inbounds i8, ptr %11, i64 %13
  store i32 %10, ptr %14, align 1, !noalias !240
  %15 = add i32 %12, 4
  store i32 %15, ptr %5, align 8, !alias.scope !240
  %16 = zext i1 %2 to i8
  tail call void @enlargeStringInfo(ptr noundef nonnull %0, i32 noundef 1) #8
  tail call void @llvm.experimental.noalias.scope.decl(metadata !243)
  %17 = load ptr, ptr %0, align 8, !alias.scope !243
  %18 = load i32, ptr %5, align 8, !alias.scope !243
  %19 = sext i32 %18 to i64
  %20 = getelementptr inbounds i8, ptr %17, i64 %19
  store i8 %16, ptr %20, align 1, !noalias !243
  %21 = add i32 %18, 1
  store i32 %21, ptr %5, align 8, !alias.scope !243
  ret void
}